; Function Attrs: mustprogress uwtable
define noalias noundef nonnull ptr @_ZN5faiss17clone_IndexRefineEPKNS_11IndexRefineE(ptr noundef readonly %0) local_unnamed_addr #0 personality ptr @__gxx_personality_v0 {
  %2 = alloca %"class.std::__cxx11::basic_string", align 8
  %3 = alloca %"class.std::allocator.10", align 1
  %4 = icmp eq ptr %0, null
  br i1 %4, label %17, label %5

5:                                                ; preds = %1
  %6 = tail call ptr @__dynamic_cast(ptr nonnull %0, ptr nonnull @_ZTIN5faiss11IndexRefineE, ptr nonnull @_ZTIN5faiss15IndexRefineFlatE, i64 0) #20
  %.not = icmp eq ptr %6, null
  %7 = tail call noalias noundef nonnull dereferenceable(64) ptr @_Znwm(i64 noundef 64) #21
  %8 = getelementptr inbounds i8, ptr %7, i64 8
  br i1 %.not, label %13, label %9

9:                                                ; preds = %5
  %10 = getelementptr inbounds i8, ptr %6, i64 8
  tail call void @llvm.memcpy.p0.p0.i64(ptr noundef nonnull align 8 dereferenceable(28) %8, ptr noundef nonnull align 8 dereferenceable(28) %10, i64 28, i1 false)
  %11 = getelementptr inbounds i8, ptr %7, i64 40
  %12 = getelementptr inbounds i8, ptr %6, i64 40
  tail call void @llvm.memcpy.p0.p0.i64(ptr noundef nonnull align 8 dereferenceable(24) %11, ptr noundef nonnull align 8 dereferenceable(24) %12, i64 24, i1 false)
  store ptr getelementptr inbounds ({ [24 x ptr] }, ptr @_ZTVN5faiss15IndexRefineFlatE, i64 0, i32 0, i64 2), ptr %7, align 8
  br label %25

13:                                               ; preds = %5
  %14 = getelementptr inbounds i8, ptr %0, i64 8
  tail call void @llvm.memcpy.p0.p0.i64(ptr noundef nonnull align 8 dereferenceable(28) %8, ptr noundef nonnull align 8 dereferenceable(28) %14, i64 28, i1 false)
  store ptr getelementptr inbounds ({ [24 x ptr] }, ptr @_ZTVN5faiss11IndexRefineE, i64 0, i32 0, i64 2), ptr %7, align 8
  %15 = getelementptr inbounds i8, ptr %7, i64 40
  %16 = getelementptr inbounds i8, ptr %0, i64 40
  tail call void @llvm.memcpy.p0.p0.i64(ptr noundef nonnull align 8 dereferenceable(24) %15, ptr noundef nonnull align 8 dereferenceable(24) %16, i64 24, i1 false)
  br label %25

17:                                               ; preds = %1
  %18 = tail call ptr @__cxa_allocate_exception(i64 40) #20
  call void @_ZNSaIcEC1Ev(ptr noundef nonnull align 1 dereferenceable(1) %3) #20
  invoke void @_ZNSt7__cxx1112basic_stringIcSt11char_traitsIcESaIcEEC2IS3_EEPKcRKS3_(ptr noundef nonnull align 8 dereferenceable(32) %2, ptr noundef nonnull @.str.4, ptr noundef nonnull align 1 dereferenceable(1) %3)
          to label %19 unwind label %.thread19

19:                                               ; preds = %17
  invoke void @_ZN5faiss14FaissExceptionC1ERKNSt7__cxx1112basic_stringIcSt11char_traitsIcESaIcEEEPKcSA_i(ptr noundef nonnull align 8 dereferenceable(40) %18, ptr noundef nonnull align 8 dereferenceable(32) %2, ptr noundef nonnull @__PRETTY_FUNCTION__._ZN5faiss17clone_IndexRefineEPKNS_11IndexRefineE, ptr noundef nonnull @.str.1, i32 noundef 113)
          to label %20 unwind label %22

20:                                               ; preds = %19
  invoke void @__cxa_throw(ptr nonnull %18, ptr nonnull @_ZTIN5faiss14FaissExceptionE, ptr nonnull @_ZN5faiss14FaissExceptionD2Ev) #22
          to label %27 unwind label %22

.thread19:                                        ; preds = %17
  %21 = landingpad { ptr, i32 }
          cleanup
  call void @_ZNSaIcED1Ev(ptr noundef nonnull align 1 dereferenceable(1) %3) #20
  br label %24

22:                                               ; preds = %19, %20
  %.0 = phi i1 [ false, %20 ], [ true, %19 ]
  %23 = landingpad { ptr, i32 }
          cleanup
  call void @_ZNSt7__cxx1112basic_stringIcSt11char_traitsIcESaIcEED1Ev(ptr noundef nonnull align 8 dereferenceable(32) %2) #20
  call void @_ZNSaIcED1Ev(ptr noundef nonnull align 1 dereferenceable(1) %3) #20
  br i1 %.0, label %24, label %26

24:                                               ; preds = %.thread19, %22
  %.pn23 = phi { ptr, i32 } [ %21, %.thread19 ], [ %23, %22 ]
  call void @__cxa_free_exception(ptr %18) #20
  br label %26

25:                                               ; preds = %13, %9
  ret ptr %7

26:                                               ; preds = %22, %24
  %.pn22 = phi { ptr, i32 } [ %23, %22 ], [ %.pn23, %24 ]
  resume { ptr, i32 } %.pn22

27:                                               ; preds = %20
  unreachable
}